; Function Attrs: mustprogress nofree norecurse nosync nounwind sspstrong willreturn memory(argmem: read) uwtable
define hidden i32 @rb_vm_ci_argc(ptr noundef %0) local_unnamed_addr #10 {
  %2 = ptrtoint ptr %0 to i64
  %3 = and i64 %2, 1
  %.not.i.not.i = icmp eq i64 %3, 0
  br i1 %.not.i.not.i, label %8, label %4

4:                                                ; preds = %1
  %5 = trunc i64 %2 to i32
  %6 = lshr i32 %5, 1
  %7 = and i32 %6, 32767
  br label %vm_ci_argc.exit

8:                                                ; preds = %1
  %9 = getelementptr inbounds nuw i8, ptr %0, i64 32
  %10 = load i64, ptr %9, align 8, !tbaa !124
  %11 = trunc i64 %10 to i32
  br label %vm_ci_argc.exit

vm_ci_argc.exit:                                  ; preds = %4, %8
  %.0.i = phi i32 [ %7, %4 ], [ %11, %8 ]
  ret i32 %.0.i
}